; Function Attrs: inlinehint nounwind uwtable
define internal fastcc ptr @OutputBuffer_Finish(ptr noundef nonnull captures(none) %0, i64 noundef %1) unnamed_addr #8 {
  %3 = load ptr, ptr %0, align 8, !tbaa !58
  %4 = getelementptr i8, ptr %3, i64 16
  %.val55.i = load i64, ptr %4, align 8, !tbaa !70
  %5 = icmp eq i64 %.val55.i, 1
  %6 = icmp eq i64 %1, 0
  %or.cond.i = and i1 %6, %5
  br i1 %or.cond.i, label %._crit_edge61.i, label %7

._crit_edge61.i:                                  ; preds = %2
  %.phi.trans.insert.i = getelementptr inbounds nuw i8, ptr %3, i64 24
  %.pre.i = load ptr, ptr %.phi.trans.insert.i, align 8, !tbaa !61
  br label %16

7:                                                ; preds = %2
  %8 = icmp eq i64 %.val55.i, 2
  br i1 %8, label %9, label %28

9:                                                ; preds = %7
  %10 = getelementptr inbounds nuw i8, ptr %3, i64 24
  %11 = load ptr, ptr %10, align 8, !tbaa !61
  %12 = getelementptr i8, ptr %11, i64 8
  %13 = load ptr, ptr %12, align 8, !tbaa !15
  %14 = getelementptr i8, ptr %13, i64 16
  %.val54.i = load i64, ptr %14, align 8, !tbaa !70
  %15 = icmp eq i64 %.val54.i, %1
  br i1 %15, label %16, label %28

16:                                               ; preds = %9, %._crit_edge61.i
  %17 = phi ptr [ %.pre.i, %._crit_edge61.i ], [ %11, %9 ]
  %18 = load ptr, ptr %17, align 8, !tbaa !15
  %19 = load i32, ptr %18, align 8, !tbaa !14
  %20 = icmp slt i32 %19, 0
  br i1 %20, label %Py_INCREF.exit.thread.i, label %Py_INCREF.exit.i

Py_INCREF.exit.i:                                 ; preds = %16
  %21 = add nuw i32 %19, 1
  store i32 %21, ptr %18, align 8, !tbaa !14
  %.pre62.i = load ptr, ptr %0, align 8, !tbaa !15
  %.not48.i = icmp eq ptr %.pre62.i, null
  br i1 %.not48.i, label %_BlocksOutputBuffer_Finish.exit, label %Py_INCREF.exit.thread.i

Py_INCREF.exit.thread.i:                          ; preds = %Py_INCREF.exit.i, %16
  %22 = phi ptr [ %.pre62.i, %Py_INCREF.exit.i ], [ %3, %16 ]
  store ptr null, ptr %0, align 8, !tbaa !15
  %23 = load i32, ptr %22, align 8, !tbaa !14
  %.not.i49.i = icmp sgt i32 %23, -1
  br i1 %.not.i49.i, label %24, label %_BlocksOutputBuffer_Finish.exit

24:                                               ; preds = %Py_INCREF.exit.thread.i
  %25 = add nsw i32 %23, -1
  store i32 %25, ptr %22, align 8, !tbaa !14
  %26 = icmp eq i32 %25, 0
  br i1 %26, label %27, label %_BlocksOutputBuffer_Finish.exit

27:                                               ; preds = %24
  tail call void @_Py_Dealloc(ptr noundef nonnull %22) #10
  br label %_BlocksOutputBuffer_Finish.exit

28:                                               ; preds = %9, %7
  %29 = getelementptr inbounds nuw i8, ptr %0, i64 8
  %30 = load i64, ptr %29, align 8, !tbaa !64
  %31 = sub i64 %30, %1
  %32 = tail call ptr @PyBytes_FromStringAndSize(ptr noundef null, i64 noundef %31) #10
  %33 = icmp eq ptr %32, null
  br i1 %33, label %34, label %36

34:                                               ; preds = %28
  %35 = load ptr, ptr @PyExc_MemoryError, align 8, !tbaa !15
  tail call void @PyErr_SetString(ptr noundef %35, ptr noundef nonnull @unable_allocate_msg) #10
  br label %_BlocksOutputBuffer_Finish.exit

36:                                               ; preds = %28
  %37 = icmp sgt i64 %.val55.i, 0
  br i1 %37, label %38, label %58

38:                                               ; preds = %36
  %39 = getelementptr inbounds nuw i8, ptr %32, i64 32
  %40 = add nsw i64 %.val55.i, -1
  br i1 %5, label %._crit_edge.i, label %.lr.ph.i

.lr.ph.i:                                         ; preds = %38, %.lr.ph.i
  %.04257.i = phi i64 [ %49, %.lr.ph.i ], [ 0, %38 ]
  %.04356.i = phi ptr [ %48, %.lr.ph.i ], [ %39, %38 ]
  %41 = load ptr, ptr %0, align 8, !tbaa !58
  %42 = getelementptr inbounds nuw i8, ptr %41, i64 24
  %43 = load ptr, ptr %42, align 8, !tbaa !61
  %44 = getelementptr ptr, ptr %43, i64 %.04257.i
  %45 = load ptr, ptr %44, align 8, !tbaa !15
  %46 = getelementptr inbounds nuw i8, ptr %45, i64 32
  %47 = getelementptr i8, ptr %45, i64 16
  %.val53.i = load i64, ptr %47, align 8, !tbaa !70
  tail call void @llvm.memcpy.p0.p0.i64(ptr align 1 %.04356.i, ptr nonnull align 1 %46, i64 %.val53.i, i1 false)
  %.val52.i = load i64, ptr %47, align 8, !tbaa !70
  %48 = getelementptr i8, ptr %.04356.i, i64 %.val52.i
  %49 = add nuw nsw i64 %.04257.i, 1
  %exitcond.not.i = icmp eq i64 %49, %40
  br i1 %exitcond.not.i, label %._crit_edge.i, label %.lr.ph.i, !llvm.loop !71

._crit_edge.i:                                    ; preds = %.lr.ph.i, %38
  %.043.lcssa.i = phi ptr [ %39, %38 ], [ %48, %.lr.ph.i ]
  %.042.lcssa.i = phi i64 [ 0, %38 ], [ %40, %.lr.ph.i ]
  %50 = load ptr, ptr %0, align 8, !tbaa !58
  %51 = getelementptr inbounds nuw i8, ptr %50, i64 24
  %52 = load ptr, ptr %51, align 8, !tbaa !61
  %53 = getelementptr ptr, ptr %52, i64 %.042.lcssa.i
  %54 = load ptr, ptr %53, align 8, !tbaa !15
  %55 = getelementptr inbounds nuw i8, ptr %54, i64 32
  %56 = getelementptr i8, ptr %54, i64 16
  %.val.i = load i64, ptr %56, align 8, !tbaa !70
  %57 = sub i64 %.val.i, %1
  tail call void @llvm.memcpy.p0.p0.i64(ptr align 1 %.043.lcssa.i, ptr nonnull align 1 %55, i64 %57, i1 false)
  br label %58

58:                                               ; preds = %._crit_edge.i, %36
  %59 = load ptr, ptr %0, align 8, !tbaa !15
  %.not.i = icmp eq ptr %59, null
  br i1 %.not.i, label %_BlocksOutputBuffer_Finish.exit, label %60

60:                                               ; preds = %58
  store ptr null, ptr %0, align 8, !tbaa !15
  %61 = load i32, ptr %59, align 8, !tbaa !14
  %.not.i.i = icmp sgt i32 %61, -1
  br i1 %.not.i.i, label %62, label %_BlocksOutputBuffer_Finish.exit

62:                                               ; preds = %60
  %63 = add nsw i32 %61, -1
  store i32 %63, ptr %59, align 8, !tbaa !14
  %64 = icmp eq i32 %63, 0
  br i1 %64, label %65, label %_BlocksOutputBuffer_Finish.exit

65:                                               ; preds = %62
  tail call void @_Py_Dealloc(ptr noundef nonnull %59) #10
  br label %_BlocksOutputBuffer_Finish.exit

_BlocksOutputBuffer_Finish.exit:                  ; preds = %Py_INCREF.exit.i, %Py_INCREF.exit.thread.i, %24, %27, %34, %58, %60, %62, %65
  %.0.i = phi ptr [ null, %34 ], [ %18, %Py_INCREF.exit.i ], [ %32, %58 ], [ %18, %Py_INCREF.exit.thread.i ], [ %18, %24 ], [ %18, %27 ], [ %32, %60 ], [ %32, %62 ], [ %32, %65 ]
  ret ptr %.0.i
}